target datalayout = "e-m:e-p270:32:32-p271:32:32-p272:64:64-i64:64-i128:128-f80:128-n8:16:32:64-S128"
target triple = "x86_64-pc-linux-gnu"

%struct.H5S_pnt_node_t = type { ptr, [0 x i64] }
%struct.H5S_sel_iter_t = type { ptr, i32, [32 x i64], [32 x i64], i64, i64, i32, %union.anon.1 }
%union.anon.1 = type { %struct.H5S_hyper_iter_t }
%struct.H5S_hyper_iter_t = type { [32 x i64], [32 x i64], i32, i8, [32 x %struct.H5S_hyper_dim_t], [32 x i64], [32 x i64], [32 x i8], [32 x i64], ptr, [32 x ptr] }
%struct.H5S_hyper_dim_t = type { i64, i64, i64, i64 }
%struct.H5S_point_iter_t = type { ptr, ptr }

@H5S_init_g = external global i8, align 1
@H5_libterm_g = external global i8, align 1

; Function Attrs: nounwind uwtable
define internal i32 @H5S__point_iter_next(ptr noundef %0, i64 noundef %1) #0 {
  %3 = alloca ptr, align 8
  %4 = alloca i64, align 8
  store ptr %0, ptr %3, align 8, !tbaa !80
  store i64 %1, ptr %4, align 8, !tbaa !23
  %5 = load i8, ptr @H5S_init_g, align 1, !tbaa !8, !range !12, !noundef !13
  %6 = trunc i8 %5 to i1
  br i1 %6, label %11, label %7

7:                                                ; preds = %2
  %8 = load i8, ptr @H5_libterm_g, align 1, !tbaa !8, !range !12, !noundef !13
  %9 = trunc i8 %8 to i1
  %10 = xor i1 %9, true
  br label %11

11:                                               ; preds = %7, %2
  %12 = phi i1 [ true, %2 ], [ %10, %7 ]
  %13 = xor i1 %12, true
  %14 = xor i1 %13, true
  %15 = zext i1 %14 to i32
  %16 = sext i32 %15 to i64
  %17 = call i64 @llvm.expect.i64(i64 %16, i64 1)
  %18 = icmp ne i64 %17, 0
  br i1 %18, label %19, label %36

19:                                               ; preds = %11
  br label %20

20:                                               ; preds = %23, %19
  %21 = load i64, ptr %4, align 8, !tbaa !23
  %22 = icmp ugt i64 %21, 0
  br i1 %22, label %23, label %35

23:                                               ; preds = %20
  %24 = load ptr, ptr %3, align 8, !tbaa !80
  %25 = getelementptr inbounds nuw %struct.H5S_sel_iter_t, ptr %24, i32 0, i32 7
  %26 = getelementptr inbounds nuw %struct.H5S_point_iter_t, ptr %25, i32 0, i32 1
  %27 = load ptr, ptr %26, align 8, !tbaa !14
  %28 = getelementptr inbounds nuw %struct.H5S_pnt_node_t, ptr %27, i32 0, i32 0
  %29 = load ptr, ptr %28, align 8, !tbaa !38
  %30 = load ptr, ptr %3, align 8, !tbaa !80
  %31 = getelementptr inbounds nuw %struct.H5S_sel_iter_t, ptr %30, i32 0, i32 7
  %32 = getelementptr inbounds nuw %struct.H5S_point_iter_t, ptr %31, i32 0, i32 1
  store ptr %29, ptr %32, align 8, !tbaa !14
  %33 = load i64, ptr %4, align 8, !tbaa !23
  %34 = add i64 %33, -1
  store i64 %34, ptr %4, align 8, !tbaa !23
  br label %20, !llvm.loop !99

35:                                               ; preds = %20
  br label %36

36:                                               ; preds = %35, %11
  ret i32 0
}