; Function Attrs: nofree norecurse nosync nounwind memory(read, argmem: readwrite, inaccessiblemem: none) uwtable
define internal noundef i32 @H5S__point_iter_next(ptr noundef captures(none) %0, i64 noundef %1) #11 {
  %3 = load i8, ptr @H5S_init_g, align 1, !tbaa !3, !range !7, !noundef !8
  %4 = trunc nuw i8 %3 to i1
  %5 = load i8, ptr @H5_libterm_g, align 1, !range !7
  %6 = trunc nuw i8 %5 to i1
  %7 = xor i1 %6, true
  %8 = select i1 %4, i1 true, i1 %7
  %9 = icmp ne i64 %1, 0
  %or.cond = and i1 %9, %8
  br i1 %or.cond, label %.preheader, label %.loopexit, !prof !90

.preheader:                                       ; preds = %2
  %10 = getelementptr inbounds nuw i8, ptr %0, i64 560
  %.promoted = load ptr, ptr %10, align 8, !tbaa !10
  br label %11

11:                                               ; preds = %.preheader, %11
  %12 = phi ptr [ %13, %11 ], [ %.promoted, %.preheader ]
  %.0 = phi i64 [ %14, %11 ], [ %1, %.preheader ]
  %13 = load ptr, ptr %12, align 8, !tbaa !25
  store ptr %13, ptr %10, align 8, !tbaa !10
  %14 = add i64 %.0, -1
  %.old1.not = icmp eq i64 %14, 0
  br i1 %.old1.not, label %.loopexit, label %11

.loopexit:                                        ; preds = %11, %2
  ret i32 0
}